#include <math.h>
#include <stdio.h>
#include <stdlib.h>
#include <string.h>

int main()
{
 char word[50];
 int n,l;
 scanf("%d", &n);
 for(int i=0; i<n; i++)
 {
  scanf("%s", word);
      l=strlen(word);
     if ((word[l-1]=='r')||(word[l-1]=='y'))
  l=l-2;
  else l=l-3;
     for(int j=0; j<l; j++){
   printf("%c", word[j]);}
  printf("\n");
 }
 return 0;
}
